target datalayout = "e-m:e-p270:32:32-p271:32:32-p272:64:64-i64:64-i128:128-f80:128-n8:16:32:64-S128"
target triple = "x86_64-pc-linux-gnu"

%struct.quic_lcidm_st = type { ptr, ptr, ptr, i64 }
%struct.quic_lcid_st = type { %struct.quic_conn_id_st, i64, ptr, i8 }
%struct.quic_conn_id_st = type { i8, [20 x i8] }
%struct.quic_lcidm_conn_st = type { i64, ptr, ptr, ptr, i64, i8 }

@.str = private unnamed_addr constant [33 x i8] c"../openssl/ssl/quic/quic_lcidm.c\00", align 1

; Function Attrs: inlinehint nounwind uwtable
define internal ptr @lh_QUIC_LCID_delete(ptr noundef %0, ptr noundef %1) #3 {
  %3 = alloca ptr, align 8
  %4 = alloca ptr, align 8
  store ptr %0, ptr %3, align 8, !tbaa !30
  store ptr %1, ptr %4, align 8, !tbaa !20
  %5 = load ptr, ptr %3, align 8, !tbaa !30
  %6 = load ptr, ptr %4, align 8, !tbaa !20
  %7 = call ptr @OPENSSL_LH_delete(ptr noundef %5, ptr noundef %6)
  ret ptr %7
}

; Function Attrs: inlinehint nounwind uwtable
define internal i32 @lh_QUIC_LCID_error(ptr noundef %0) #3 {
  %2 = alloca ptr, align 8
  store ptr %0, ptr %2, align 8, !tbaa !30
  %3 = load ptr, ptr %2, align 8, !tbaa !30
  %4 = call i32 @OPENSSL_LH_error(ptr noundef %3)
  ret i32 %4
}

; Function Attrs: inlinehint nounwind uwtable
define internal ptr @lh_QUIC_LCID_insert(ptr noundef %0, ptr noundef %1) #3 {
  %3 = alloca ptr, align 8
  %4 = alloca ptr, align 8
  store ptr %0, ptr %3, align 8, !tbaa !30
  store ptr %1, ptr %4, align 8, !tbaa !20
  %5 = load ptr, ptr %3, align 8, !tbaa !30
  %6 = load ptr, ptr %4, align 8, !tbaa !20
  %7 = call ptr @OPENSSL_LH_insert(ptr noundef %5, ptr noundef %6)
  ret ptr %7
}

; Function Attrs: nounwind uwtable
define internal ptr @lcidm_conn_new_lcid(ptr noundef %0, ptr noundef %1, ptr noundef %2) #0 {
  %4 = alloca ptr, align 8
  %5 = alloca ptr, align 8
  %6 = alloca ptr, align 8
  %7 = alloca ptr, align 8
  %8 = alloca ptr, align 8
  %9 = alloca i32, align 4
  store ptr %0, ptr %5, align 8, !tbaa !10
  store ptr %1, ptr %6, align 8, !tbaa !27
  store ptr %2, ptr %7, align 8, !tbaa !33
  call void @llvm.lifetime.start.p0(i64 8, ptr %8) #7
  store ptr null, ptr %8, align 8, !tbaa !20
  %10 = load ptr, ptr %7, align 8, !tbaa !33
  %11 = getelementptr inbounds nuw %struct.quic_conn_id_st, ptr %10, i32 0, i32 0
  %12 = load i8, ptr %11, align 1, !tbaa !35
  %13 = zext i8 %12 to i32
  %14 = icmp sgt i32 %13, 20
  br i1 %14, label %15, label %16

15:                                               ; preds = %3
  store ptr null, ptr %4, align 8
  store i32 1, ptr %9, align 4
  br label %63

16:                                               ; preds = %3
  %17 = call noalias ptr @CRYPTO_zalloc(i64 noundef 48, ptr noundef @.str, i32 noundef 249)
  store ptr %17, ptr %8, align 8, !tbaa !20
  %18 = icmp eq ptr %17, null
  br i1 %18, label %19, label %20

19:                                               ; preds = %16
  br label %61

20:                                               ; preds = %16
  %21 = load ptr, ptr %8, align 8, !tbaa !20
  %22 = getelementptr inbounds nuw %struct.quic_lcid_st, ptr %21, i32 0, i32 0
  %23 = load ptr, ptr %7, align 8, !tbaa !33
  call void @llvm.memcpy.p0.p0.i64(ptr align 8 %22, ptr align 1 %23, i64 21, i1 false), !tbaa.struct !36
  %24 = load ptr, ptr %6, align 8, !tbaa !27
  %25 = load ptr, ptr %8, align 8, !tbaa !20
  %26 = getelementptr inbounds nuw %struct.quic_lcid_st, ptr %25, i32 0, i32 2
  store ptr %24, ptr %26, align 8, !tbaa !41
  %27 = load ptr, ptr %6, align 8, !tbaa !27
  %28 = getelementptr inbounds nuw %struct.quic_lcidm_conn_st, ptr %27, i32 0, i32 1
  %29 = load ptr, ptr %28, align 8, !tbaa !40
  %30 = load ptr, ptr %8, align 8, !tbaa !20
  %31 = call ptr @lh_QUIC_LCID_insert(ptr noundef %29, ptr noundef %30)
  %32 = load ptr, ptr %6, align 8, !tbaa !27
  %33 = getelementptr inbounds nuw %struct.quic_lcidm_conn_st, ptr %32, i32 0, i32 1
  %34 = load ptr, ptr %33, align 8, !tbaa !40
  %35 = call i32 @lh_QUIC_LCID_error(ptr noundef %34)
  %36 = icmp ne i32 %35, 0
  br i1 %36, label %37, label %38

37:                                               ; preds = %20
  br label %61

38:                                               ; preds = %20
  %39 = load ptr, ptr %5, align 8, !tbaa !10
  %40 = getelementptr inbounds nuw %struct.quic_lcidm_st, ptr %39, i32 0, i32 1
  %41 = load ptr, ptr %40, align 8, !tbaa !12
  %42 = load ptr, ptr %8, align 8, !tbaa !20
  %43 = call ptr @lh_QUIC_LCID_insert(ptr noundef %41, ptr noundef %42)
  %44 = load ptr, ptr %5, align 8, !tbaa !10
  %45 = getelementptr inbounds nuw %struct.quic_lcidm_st, ptr %44, i32 0, i32 1
  %46 = load ptr, ptr %45, align 8, !tbaa !12
  %47 = call i32 @lh_QUIC_LCID_error(ptr noundef %46)
  %48 = icmp ne i32 %47, 0
  br i1 %48, label %49, label %55

49:                                               ; preds = %38
  %50 = load ptr, ptr %6, align 8, !tbaa !27
  %51 = getelementptr inbounds nuw %struct.quic_lcidm_conn_st, ptr %50, i32 0, i32 1
  %52 = load ptr, ptr %51, align 8, !tbaa !40
  %53 = load ptr, ptr %8, align 8, !tbaa !20
  %54 = call ptr @lh_QUIC_LCID_delete(ptr noundef %52, ptr noundef %53)
  br label %61

55:                                               ; preds = %38
  %56 = load ptr, ptr %6, align 8, !tbaa !27
  %57 = getelementptr inbounds nuw %struct.quic_lcidm_conn_st, ptr %56, i32 0, i32 0
  %58 = load i64, ptr %57, align 8, !tbaa !32
  %59 = add i64 %58, 1
  store i64 %59, ptr %57, align 8, !tbaa !32
  %60 = load ptr, ptr %8, align 8, !tbaa !20
  store ptr %60, ptr %4, align 8
  store i32 1, ptr %9, align 4
  br label %63

61:                                               ; preds = %49, %37, %19
  %62 = load ptr, ptr %8, align 8, !tbaa !20
  call void @CRYPTO_free(ptr noundef %62, ptr noundef @.str, i32 noundef 269)
  store ptr null, ptr %4, align 8
  store i32 1, ptr %9, align 4
  br label %63

63:                                               ; preds = %61, %55, %15
  call void @llvm.lifetime.end.p0(i64 8, ptr %8) #7
  %64 = load ptr, ptr %4, align 8
  ret ptr %64
}