; Function Attrs: nounwind uwtable
define internal fastcc ptr @lcidm_conn_new_lcid(ptr noundef readonly captures(none) %0, ptr noundef nonnull %1, ptr noundef readonly captures(none) %2) unnamed_addr #0 {
  %4 = load i8, ptr %2, align 1, !tbaa !23
  %5 = icmp ugt i8 %4, 20
  br i1 %5, label %29, label %6

6:                                                ; preds = %3
  %7 = tail call noalias ptr @CRYPTO_zalloc(i64 noundef 48, ptr noundef nonnull @.str, i32 noundef 249) #11
  %8 = icmp eq ptr %7, null
  br i1 %8, label %28, label %9

9:                                                ; preds = %6
  tail call void @llvm.memcpy.p0.p0.i64(ptr noundef nonnull align 8 dereferenceable(21) %7, ptr noundef nonnull align 1 dereferenceable(21) %2, i64 21, i1 false), !tbaa.struct !29
  %10 = getelementptr inbounds nuw i8, ptr %7, i64 32
  store ptr %1, ptr %10, align 8, !tbaa !32
  %11 = getelementptr inbounds nuw i8, ptr %1, i64 8
  %12 = load ptr, ptr %11, align 8, !tbaa !27
  %13 = tail call ptr @OPENSSL_LH_insert(ptr noundef %12, ptr noundef nonnull %7) #11
  %14 = load ptr, ptr %11, align 8, !tbaa !27
  %15 = tail call i32 @OPENSSL_LH_error(ptr noundef %14) #11
  %.not = icmp eq i32 %15, 0
  br i1 %.not, label %16, label %28

16:                                               ; preds = %9
  %17 = getelementptr inbounds nuw i8, ptr %0, i64 8
  %18 = load ptr, ptr %17, align 8, !tbaa !3
  %19 = tail call ptr @OPENSSL_LH_insert(ptr noundef %18, ptr noundef nonnull %7) #11
  %20 = load ptr, ptr %17, align 8, !tbaa !3
  %21 = tail call i32 @OPENSSL_LH_error(ptr noundef %20) #11
  %.not18 = icmp eq i32 %21, 0
  br i1 %.not18, label %25, label %22

22:                                               ; preds = %16
  %23 = load ptr, ptr %11, align 8, !tbaa !27
  %24 = tail call ptr @OPENSSL_LH_delete(ptr noundef %23, ptr noundef nonnull %7) #11
  br label %28

25:                                               ; preds = %16
  %26 = load i64, ptr %1, align 8, !tbaa !28
  %27 = add i64 %26, 1
  store i64 %27, ptr %1, align 8, !tbaa !28
  br label %29

28:                                               ; preds = %9, %6, %22
  tail call void @CRYPTO_free(ptr noundef %7, ptr noundef nonnull @.str, i32 noundef 269) #11
  br label %29

29:                                               ; preds = %3, %28, %25
  %.0 = phi ptr [ null, %28 ], [ %7, %25 ], [ null, %3 ]
  ret ptr %.0
}